(dp0
S'engine'
p1
S'pdflatex'
p2
sS'packages'
p3
c__builtin__
set
p4
((lp5
S'exscale'
p6
aS'graphicx'
p7
aS'beamerposter'
p8
atp9
Rp10
sS'files_with_guttermarks'
p11
g4
((lp12
S'zinb2.tex'
p13
aS'/Users/subasishdas1/Desktop/MCA/TRB_Posters_2015/zinb/zinb2.tex'
p14
atp15
Rp16
sS'synctex'
p17
I01
s.