(dp0
S'engine'
p1
S'pdflatex'
p2
sS'packages'
p3
c__builtin__
set
p4
((lp5
S'graphicx'
p6
aS'exscale'
p7
aS'beamerposter'
p8
atp9
Rp10
sS'files_with_guttermarks'
p11
g4
((lp12
S'/Users/subasishdas1/Desktop/MCA/mca/mca_2015.tex'
p13
aS'mca_2015.tex'
p14
aS'/Users/subasishdas1/Desktop/MCA/TRB_Posters_2015/mca/mca_2015.tex'
p15
atp16
Rp17
sS'synctex'
p18
I01
s.